target datalayout = "e-m:e-p270:32:32-p271:32:32-p272:64:64-i64:64-i128:128-f80:128-n8:16:32:64-S128"
target triple = "x86_64-pc-linux-gnu"

@ett_gtpv2_overload_control_information = internal global i32 0, align 4
@.str.1803 = private unnamed_addr constant [13 x i8] c"[Grouped IE]\00", align 1

; Function Attrs: null_pointer_is_valid sspstrong uwtable
define internal void @dissect_gtpv2_overload_control_inf(ptr noundef %0, ptr noundef %1, ptr noundef %2, ptr noundef %3, i16 noundef zeroext %4, i8 noundef zeroext %5, i8 noundef zeroext %6, ptr noundef %7) #1 {
  %9 = alloca ptr, align 8
  %10 = alloca ptr, align 8
  %11 = alloca ptr, align 8
  %12 = alloca ptr, align 8
  %13 = alloca i16, align 2
  %14 = alloca i8, align 1
  %15 = alloca i8, align 1
  %16 = alloca ptr, align 8
  %17 = alloca i32, align 4
  %18 = alloca ptr, align 8
  %19 = alloca ptr, align 8
  store ptr %0, ptr %9, align 8
  store ptr %1, ptr %10, align 8
  store ptr %2, ptr %11, align 8
  store ptr %3, ptr %12, align 8
  store i16 %4, ptr %13, align 2
  store i8 %5, ptr %14, align 1
  store i8 %6, ptr %15, align 1
  store ptr %7, ptr %16, align 8
  call void @llvm.lifetime.start.p0(i64 4, ptr %17) #11
  store i32 0, ptr %17, align 4
  call void @llvm.lifetime.start.p0(i64 8, ptr %18) #11
  call void @llvm.lifetime.start.p0(i64 8, ptr %19) #11
  %20 = load ptr, ptr %12, align 8
  call void (ptr, ptr, ...) @proto_item_append_text(ptr noundef %20, ptr noundef @.str.1803)
  %21 = load ptr, ptr %12, align 8
  %22 = load i32, ptr @ett_gtpv2_overload_control_information, align 4
  %23 = call ptr @proto_item_add_subtree(ptr noundef %21, i32 noundef %22)
  store ptr %23, ptr %18, align 8
  %24 = load ptr, ptr %9, align 8
  %25 = load i32, ptr %17, align 4
  %26 = load i16, ptr %13, align 2
  %27 = zext i16 %26 to i32
  %28 = call ptr @tvb_new_subset_length(ptr noundef %24, i32 noundef %25, i32 noundef %27)
  store ptr %28, ptr %19, align 8
  %29 = load ptr, ptr %19, align 8
  %30 = load ptr, ptr %10, align 8
  %31 = load ptr, ptr %18, align 8
  %32 = load i32, ptr %17, align 4
  %33 = load i8, ptr %14, align 1
  %34 = load ptr, ptr %16, align 8
  call void @dissect_gtpv2_ie_common(ptr noundef %29, ptr noundef %30, ptr noundef %31, i32 noundef %32, i8 noundef zeroext %33, ptr noundef %34, i8 noundef zeroext -76)
  call void @llvm.lifetime.end.p0(i64 8, ptr %19) #11
  call void @llvm.lifetime.end.p0(i64 8, ptr %18) #11
  call void @llvm.lifetime.end.p0(i64 4, ptr %17) #11
  ret void
}